target datalayout = "e-m:e-p270:32:32-p271:32:32-p272:64:64-i64:64-i128:128-f80:128-n8:16:32:64-S128"
target triple = "x86_64-pc-linux-gnu"

%class.FieldInformation = type { %class.QObject, %class.IDataPrintable, ptr, ptr }
%class.QObject = type { ptr, %class.QScopedPointer }
%class.QScopedPointer = type { ptr }
%class.IDataPrintable = type { ptr }
%struct.field_info = type { ptr, i32, i32, i32, i32, i32, i32, ptr, ptr, ptr, i32, i32 }

; Function Attrs: mustprogress nounwind uwtable
define noundef i32 @_ZN16FieldInformation4flagEj(ptr noundef nonnull align 8 dereferenceable(40) %0, i32 noundef %1) #2 align 2 {
  %3 = alloca i32, align 4
  %4 = alloca ptr, align 8
  %5 = alloca i32, align 4
  store ptr %0, ptr %4, align 8
  store i32 %1, ptr %5, align 4
  %6 = load ptr, ptr %4, align 8
  %7 = getelementptr inbounds %class.FieldInformation, ptr %6, i32 0, i32 2
  %8 = load ptr, ptr %7, align 8
  %9 = icmp ne ptr %8, null
  br i1 %9, label %10, label %24

10:                                               ; preds = %2
  %11 = getelementptr inbounds %class.FieldInformation, ptr %6, i32 0, i32 2
  %12 = load ptr, ptr %11, align 8
  %13 = icmp ne ptr %12, null
  br i1 %13, label %14, label %21

14:                                               ; preds = %10
  %15 = getelementptr inbounds %class.FieldInformation, ptr %6, i32 0, i32 2
  %16 = load ptr, ptr %15, align 8
  %17 = getelementptr inbounds %struct.field_info, ptr %16, i32 0, i32 6
  %18 = load i32, ptr %17, align 4
  %19 = load i32, ptr %5, align 4
  %20 = and i32 %18, %19
  br label %22

21:                                               ; preds = %10
  br label %22

22:                                               ; preds = %21, %14
  %23 = phi i32 [ %20, %14 ], [ 0, %21 ]
  store i32 %23, ptr %3, align 4
  br label %25

24:                                               ; preds = %2
  store i32 0, ptr %3, align 4
  br label %25

25:                                               ; preds = %24, %22
  %26 = load i32, ptr %3, align 4
  ret i32 %26
}