; Function Attrs: mustprogress nofree norecurse nosync nounwind willreturn memory(read, inaccessiblemem: none) uwtable
define noundef i32 @_ZN16FieldInformation4flagEj(ptr nocapture noundef nonnull readonly align 8 dereferenceable(40) %0, i32 noundef %1) local_unnamed_addr #4 align 2 {
  %3 = getelementptr inbounds i8, ptr %0, i64 24
  %4 = load ptr, ptr %3, align 8
  %.not = icmp eq ptr %4, null
  br i1 %.not, label %9, label %5

5:                                                ; preds = %2
  %6 = getelementptr inbounds i8, ptr %4, i64 28
  %7 = load i32, ptr %6, align 4
  %8 = and i32 %7, %1
  br label %9

9:                                                ; preds = %2, %5
  %.0 = phi i32 [ %8, %5 ], [ 0, %2 ]
  ret i32 %.0
}